; Function Attrs: mustprogress nofree norecurse nosync nounwind willreturn memory(argmem: readwrite) uwtable
define range(i32 -344, 1) i32 @wolfSSL_mutual_auth(ptr noundef captures(address_is_null) %0, i32 noundef %1) local_unnamed_addr #4 {
  %3 = icmp eq ptr %0, null
  br i1 %3, label %15, label %4

4:                                                ; preds = %2
  %5 = getelementptr inbounds nuw i8, ptr %0, i64 1024
  %6 = load i64, ptr %5, align 8
  %7 = and i64 %6, 48
  %8 = icmp eq i64 %7, 0
  br i1 %8, label %15, label %9

9:                                                ; preds = %4
  %10 = and i32 %1, 1
  %11 = zext nneg i32 %10 to i64
  %12 = shl nuw nsw i64 %11, 47
  %13 = and i64 %6, -140737488355329
  %14 = or disjoint i64 %13, %12
  store i64 %14, ptr %5, align 8
  br label %15

15:                                               ; preds = %4, %2, %9
  %.0 = phi i32 [ 0, %9 ], [ -173, %2 ], [ -344, %4 ]
  ret i32 %.0
}